; Function Attrs: nounwind uwtable
define void @Ivy_ManCollectCone_rec(ptr noundef %0, ptr noundef %1) local_unnamed_addr #0 {
  %3 = getelementptr inbounds nuw i8, ptr %0, i64 8
  %4 = load i32, ptr %3, align 8
  %5 = and i32 %4, 16
  %.not = icmp eq i32 %5, 0
  br i1 %.not, label %6, label %Vec_PtrPushUnique.exit

6:                                                ; preds = %2
  %7 = and i32 %4, 15
  %.not16 = icmp eq i32 %7, 7
  %8 = getelementptr i8, ptr %0, i64 16
  %.val13 = load ptr, ptr %8, align 8, !tbaa !18
  %9 = ptrtoint ptr %.val13 to i64
  %10 = and i64 %9, -2
  %11 = inttoptr i64 %10 to ptr
  tail call void @Ivy_ManCollectCone_rec(ptr noundef %11, ptr noundef %1)
  br i1 %.not16, label %12, label %42

12:                                               ; preds = %6
  %13 = getelementptr inbounds nuw i8, ptr %1, i64 4
  %14 = load i32, ptr %13, align 4, !tbaa !26
  %15 = load i32, ptr %1, align 8, !tbaa !39
  %16 = icmp eq i32 %14, %15
  br i1 %16, label %17, label %.Vec_PtrGrow.exit11_crit_edge.i

.Vec_PtrGrow.exit11_crit_edge.i:                  ; preds = %12
  %.phi.trans.insert.i = getelementptr inbounds nuw i8, ptr %1, i64 8
  %.pre.i = load ptr, ptr %.phi.trans.insert.i, align 8, !tbaa !29
  br label %Vec_PtrPush.exit

17:                                               ; preds = %12
  %18 = icmp slt i32 %14, 16
  br i1 %18, label %19, label %27

19:                                               ; preds = %17
  %20 = getelementptr inbounds nuw i8, ptr %1, i64 8
  %21 = load ptr, ptr %20, align 8, !tbaa !29
  %.not9.i.i = icmp eq ptr %21, null
  br i1 %.not9.i.i, label %24, label %22

22:                                               ; preds = %19
  %23 = tail call dereferenceable_or_null(128) ptr @realloc(ptr noundef nonnull %21, i64 noundef 128) #13
  br label %Vec_PtrGrow.exit.i

24:                                               ; preds = %19
  %25 = tail call noalias dereferenceable_or_null(128) ptr @malloc(i64 noundef 128) #14
  br label %Vec_PtrGrow.exit.i

Vec_PtrGrow.exit.i:                               ; preds = %24, %22
  %26 = phi ptr [ %23, %22 ], [ %25, %24 ]
  store ptr %26, ptr %20, align 8, !tbaa !29
  store i32 16, ptr %1, align 8, !tbaa !39
  br label %Vec_PtrPush.exit

27:                                               ; preds = %17
  %28 = shl nuw nsw i32 %14, 1
  %29 = getelementptr inbounds nuw i8, ptr %1, i64 8
  %30 = load ptr, ptr %29, align 8, !tbaa !29
  %.not9.i10.i = icmp eq ptr %30, null
  %31 = zext nneg i32 %28 to i64
  %32 = shl nuw nsw i64 %31, 3
  br i1 %.not9.i10.i, label %35, label %33

33:                                               ; preds = %27
  %34 = tail call ptr @realloc(ptr noundef nonnull %30, i64 noundef %32) #13
  br label %37

35:                                               ; preds = %27
  %36 = tail call noalias ptr @malloc(i64 noundef %32) #14
  br label %37

37:                                               ; preds = %35, %33
  %38 = phi ptr [ %34, %33 ], [ %36, %35 ]
  store ptr %38, ptr %29, align 8, !tbaa !29
  store i32 %28, ptr %1, align 8, !tbaa !39
  br label %Vec_PtrPush.exit

Vec_PtrPush.exit:                                 ; preds = %.Vec_PtrGrow.exit11_crit_edge.i, %Vec_PtrGrow.exit.i, %37
  %39 = phi ptr [ %.pre.i, %.Vec_PtrGrow.exit11_crit_edge.i ], [ %38, %37 ], [ %26, %Vec_PtrGrow.exit.i ]
  %40 = load i32, ptr %13, align 4, !tbaa !26
  %41 = add nsw i32 %40, 1
  store i32 %41, ptr %13, align 4, !tbaa !26
  br label %Vec_PtrPushUnique.exit.sink.split

42:                                               ; preds = %6
  %43 = getelementptr i8, ptr %0, i64 24
  %.val15 = load ptr, ptr %43, align 8, !tbaa !19
  %44 = ptrtoint ptr %.val15 to i64
  %45 = and i64 %44, -2
  %46 = inttoptr i64 %45 to ptr
  tail call void @Ivy_ManCollectCone_rec(ptr noundef %46, ptr noundef %1)
  %47 = getelementptr inbounds nuw i8, ptr %1, i64 4
  %48 = load i32, ptr %47, align 4, !tbaa !26
  %49 = icmp sgt i32 %48, 0
  br i1 %49, label %.lr.ph.i, label %._crit_edge.i

.lr.ph.i:                                         ; preds = %42
  %50 = getelementptr inbounds nuw i8, ptr %1, i64 8
  %51 = load ptr, ptr %50, align 8, !tbaa !29
  %wide.trip.count.i = zext nneg i32 %48 to i64
  br label %53

52:                                               ; preds = %53
  %indvars.iv.next.i = add nuw nsw i64 %indvars.iv.i, 1
  %exitcond.not.i = icmp eq i64 %indvars.iv.next.i, %wide.trip.count.i
  br i1 %exitcond.not.i, label %._crit_edge.i, label %53, !llvm.loop !40

53:                                               ; preds = %52, %.lr.ph.i
  %indvars.iv.i = phi i64 [ 0, %.lr.ph.i ], [ %indvars.iv.next.i, %52 ]
  %54 = getelementptr inbounds nuw ptr, ptr %51, i64 %indvars.iv.i
  %55 = load ptr, ptr %54, align 8, !tbaa !30
  %56 = icmp eq ptr %55, %0
  br i1 %56, label %Vec_PtrPushUnique.exit, label %52

._crit_edge.i:                                    ; preds = %52, %42
  %57 = load i32, ptr %1, align 8, !tbaa !39
  %58 = icmp eq i32 %48, %57
  br i1 %58, label %59, label %.Vec_PtrGrow.exit11_crit_edge.i.i

.Vec_PtrGrow.exit11_crit_edge.i.i:                ; preds = %._crit_edge.i
  %.phi.trans.insert.i.i = getelementptr inbounds nuw i8, ptr %1, i64 8
  %.pre.i.i = load ptr, ptr %.phi.trans.insert.i.i, align 8, !tbaa !29
  br label %Vec_PtrPush.exit.i

59:                                               ; preds = %._crit_edge.i
  %60 = icmp slt i32 %48, 16
  br i1 %60, label %61, label %69

61:                                               ; preds = %59
  %62 = getelementptr inbounds nuw i8, ptr %1, i64 8
  %63 = load ptr, ptr %62, align 8, !tbaa !29
  %.not9.i.i.i = icmp eq ptr %63, null
  br i1 %.not9.i.i.i, label %66, label %64

64:                                               ; preds = %61
  %65 = tail call dereferenceable_or_null(128) ptr @realloc(ptr noundef nonnull %63, i64 noundef 128) #13
  br label %Vec_PtrGrow.exit.i.i

66:                                               ; preds = %61
  %67 = tail call noalias dereferenceable_or_null(128) ptr @malloc(i64 noundef 128) #14
  br label %Vec_PtrGrow.exit.i.i

Vec_PtrGrow.exit.i.i:                             ; preds = %66, %64
  %68 = phi ptr [ %65, %64 ], [ %67, %66 ]
  store ptr %68, ptr %62, align 8, !tbaa !29
  store i32 16, ptr %1, align 8, !tbaa !39
  br label %Vec_PtrPush.exit.i

69:                                               ; preds = %59
  %70 = shl nuw nsw i32 %48, 1
  %71 = getelementptr inbounds nuw i8, ptr %1, i64 8
  %72 = load ptr, ptr %71, align 8, !tbaa !29
  %.not9.i10.i.i = icmp eq ptr %72, null
  %73 = zext nneg i32 %70 to i64
  %74 = shl nuw nsw i64 %73, 3
  br i1 %.not9.i10.i.i, label %77, label %75

75:                                               ; preds = %69
  %76 = tail call ptr @realloc(ptr noundef nonnull %72, i64 noundef %74) #13
  br label %79

77:                                               ; preds = %69
  %78 = tail call noalias ptr @malloc(i64 noundef %74) #14
  br label %79

79:                                               ; preds = %77, %75
  %80 = phi ptr [ %76, %75 ], [ %78, %77 ]
  store ptr %80, ptr %71, align 8, !tbaa !29
  store i32 %70, ptr %1, align 8, !tbaa !39
  br label %Vec_PtrPush.exit.i

Vec_PtrPush.exit.i:                               ; preds = %79, %Vec_PtrGrow.exit.i.i, %.Vec_PtrGrow.exit11_crit_edge.i.i
  %81 = phi ptr [ %.pre.i.i, %.Vec_PtrGrow.exit11_crit_edge.i.i ], [ %80, %79 ], [ %68, %Vec_PtrGrow.exit.i.i ]
  %82 = load i32, ptr %47, align 4, !tbaa !26
  %83 = add nsw i32 %82, 1
  store i32 %83, ptr %47, align 4, !tbaa !26
  br label %Vec_PtrPushUnique.exit.sink.split

Vec_PtrPushUnique.exit.sink.split:                ; preds = %Vec_PtrPush.exit, %Vec_PtrPush.exit.i
  %.sink = phi i32 [ %82, %Vec_PtrPush.exit.i ], [ %40, %Vec_PtrPush.exit ]
  %.sink17 = phi ptr [ %81, %Vec_PtrPush.exit.i ], [ %39, %Vec_PtrPush.exit ]
  %84 = sext i32 %.sink to i64
  %85 = getelementptr inbounds ptr, ptr %.sink17, i64 %84
  store ptr %0, ptr %85, align 8, !tbaa !30
  br label %Vec_PtrPushUnique.exit

Vec_PtrPushUnique.exit:                           ; preds = %53, %Vec_PtrPushUnique.exit.sink.split, %2
  ret void
}